; Function Attrs: nounwind uwtable
define hidden void @SDL_SetMouseFocus(ptr noundef %0) local_unnamed_addr #0 {
  %2 = load ptr, ptr getelementptr inbounds nuw (i8, ptr @SDL_mouse, i64 128), align 8
  %3 = icmp eq ptr %2, %0
  br i1 %3, label %SDL_RedrawCursor.exit, label %4

4:                                                ; preds = %1
  %.not = icmp eq ptr %2, null
  br i1 %.not, label %7, label %5

5:                                                ; preds = %4
  %6 = tail call zeroext i1 @SDL_SendWindowEvent(ptr noundef nonnull %2, i32 noundef 525, i32 noundef 0, i32 noundef 0) #13
  br label %7

7:                                                ; preds = %5, %4
  store ptr %0, ptr getelementptr inbounds nuw (i8, ptr @SDL_mouse, i64 128), align 8
  store i8 0, ptr getelementptr inbounds nuw (i8, ptr @SDL_mouse, i64 184), align 8
  %.not11 = icmp eq ptr %0, null
  br i1 %.not11, label %.thread, label %8

.thread:                                          ; preds = %7
  %.val.i13 = load ptr, ptr getelementptr inbounds nuw (i8, ptr @SDL_mouse, i64 272), align 8
  br label %19

8:                                                ; preds = %7
  %9 = tail call zeroext i1 @SDL_SendWindowEvent(ptr noundef nonnull %0, i32 noundef 524, i32 noundef 0, i32 noundef 0) #13
  %.pr = load ptr, ptr getelementptr inbounds nuw (i8, ptr @SDL_mouse, i64 128), align 8
  %.not.i = icmp eq ptr %.pr, null
  %.val.i = load ptr, ptr getelementptr inbounds nuw (i8, ptr @SDL_mouse, i64 272), align 8
  %.val14.i = load ptr, ptr getelementptr inbounds nuw (i8, ptr @SDL_mouse, i64 280), align 8
  br i1 %.not.i, label %19, label %10

10:                                               ; preds = %8
  %11 = load i8, ptr getelementptr inbounds nuw (i8, ptr @SDL_mouse, i64 288), align 8, !range !3, !noundef !4
  %12 = trunc nuw i8 %11 to i1
  br i1 %12, label %13, label %18

13:                                               ; preds = %10
  %14 = load i8, ptr getelementptr inbounds nuw (i8, ptr @SDL_mouse, i64 185), align 1, !range !3, !noundef !4
  %15 = trunc nuw i8 %14 to i1
  %16 = load i8, ptr getelementptr inbounds nuw (i8, ptr @SDL_mouse, i64 187), align 1, !range !3
  %17 = trunc nuw i8 %16 to i1
  %or.cond.i = select i1 %15, i1 %17, i1 false
  br i1 %or.cond.i, label %18, label %19

18:                                               ; preds = %13, %10
  br label %19

19:                                               ; preds = %.thread, %18, %13, %8
  %.1.i = phi ptr [ null, %18 ], [ %.val14.i, %13 ], [ %.val.i, %8 ], [ %.val.i13, %.thread ]
  %20 = load ptr, ptr getelementptr inbounds nuw (i8, ptr @SDL_mouse, i64 16), align 8
  %.not12.i = icmp eq ptr %20, null
  br i1 %.not12.i, label %SDL_RedrawCursor.exit, label %21

21:                                               ; preds = %19
  %22 = tail call zeroext i1 %20(ptr noundef %.1.i) #13
  br label %SDL_RedrawCursor.exit

SDL_RedrawCursor.exit:                            ; preds = %21, %19, %1
  ret void
}